target datalayout = "e-m:e-p270:32:32-p271:32:32-p272:64:64-i64:64-i128:128-f80:128-n8:16:32:64-S128"
target triple = "x86_64-pc-linux-gnu"

%struct.If_DsdMan_t_ = type { ptr, i32, i32, i32, i32, ptr, ptr, %struct.Vec_Ptr_t_, %struct.Vec_Int_t_, %struct.Vec_Int_t_, ptr, ptr, ptr, [16 x ptr], [16 x ptr], [16 x ptr], [16 x ptr], i32, i32, ptr, ptr, ptr, ptr, ptr, i32, i32, i32, i32, i64, i64, i64, i64, i64 }
%struct.Vec_Ptr_t_ = type { i32, i32, ptr }
%struct.Vec_Int_t_ = type { i32, i32, ptr }
%struct.If_DsdObj_t_ = type { i32, i32, [0 x i32] }

; Function Attrs: inlinehint nounwind uwtable
define internal ptr @Vec_PtrEntry(ptr noundef %0, i32 noundef %1) #1 {
  %3 = alloca ptr, align 8
  %4 = alloca i32, align 4
  store ptr %0, ptr %3, align 8, !tbaa !22
  store i32 %1, ptr %4, align 4, !tbaa !27
  %5 = load ptr, ptr %3, align 8, !tbaa !22
  %6 = getelementptr inbounds nuw %struct.Vec_Ptr_t_, ptr %5, i32 0, i32 2
  %7 = load ptr, ptr %6, align 8, !tbaa !46
  %8 = load i32, ptr %4, align 4, !tbaa !27
  %9 = sext i32 %8 to i64
  %10 = getelementptr inbounds ptr, ptr %7, i64 %9
  %11 = load ptr, ptr %10, align 8, !tbaa !44
  ret ptr %11
}

; Function Attrs: inlinehint nounwind uwtable
define internal i32 @Abc_Lit2Var(i32 noundef %0) #1 {
  %2 = alloca i32, align 4
  store i32 %0, ptr %2, align 4, !tbaa !27
  %3 = load i32, ptr %2, align 4, !tbaa !27
  %4 = ashr i32 %3, 1
  ret i32 %4
}

; Function Attrs: inlinehint nounwind uwtable
define internal i32 @If_DsdObjFaninLit(ptr noundef %0, i32 noundef %1) #1 {
  %3 = alloca ptr, align 8
  %4 = alloca i32, align 4
  store ptr %0, ptr %3, align 8, !tbaa !40
  store i32 %1, ptr %4, align 4, !tbaa !27
  %5 = load ptr, ptr %3, align 8, !tbaa !40
  %6 = getelementptr inbounds nuw %struct.If_DsdObj_t_, ptr %5, i32 0, i32 2
  %7 = load i32, ptr %4, align 4, !tbaa !27
  %8 = sext i32 %7 to i64
  %9 = getelementptr inbounds [0 x i32], ptr %6, i64 0, i64 %8
  %10 = load i32, ptr %9, align 4, !tbaa !27
  ret i32 %10
}

; Function Attrs: inlinehint nounwind uwtable
define internal i32 @If_DsdObjFaninNum(ptr noundef %0) #1 {
  %2 = alloca ptr, align 8
  store ptr %0, ptr %2, align 8, !tbaa !40
  %3 = load ptr, ptr %2, align 8, !tbaa !40
  %4 = getelementptr inbounds nuw %struct.If_DsdObj_t_, ptr %3, i32 0, i32 1
  %5 = load i32, ptr %4, align 4
  %6 = lshr i32 %5, 27
  ret i32 %6
}

; Function Attrs: inlinehint nounwind uwtable
define internal i32 @If_DsdObjType(ptr noundef %0) #1 {
  %2 = alloca ptr, align 8
  store ptr %0, ptr %2, align 8, !tbaa !40
  %3 = load ptr, ptr %2, align 8, !tbaa !40
  %4 = getelementptr inbounds nuw %struct.If_DsdObj_t_, ptr %3, i32 0, i32 1
  %5 = load i32, ptr %4, align 4
  %6 = and i32 %5, 7
  ret i32 %6
}

; Function Attrs: inlinehint nounwind uwtable
define internal ptr @If_DsdVecObj(ptr noundef %0, i32 noundef %1) #1 {
  %3 = alloca ptr, align 8
  %4 = alloca i32, align 4
  store ptr %0, ptr %3, align 8, !tbaa !22
  store i32 %1, ptr %4, align 4, !tbaa !27
  %5 = load ptr, ptr %3, align 8, !tbaa !22
  %6 = load i32, ptr %4, align 4, !tbaa !27
  %7 = call ptr @Vec_PtrEntry(ptr noundef %5, i32 noundef %6)
  ret ptr %7
}

; Function Attrs: nounwind uwtable
define i32 @If_DsdManCheckNonDec_rec(ptr noundef %0, i32 noundef %1) #0 {
  %3 = alloca i32, align 4
  %4 = alloca ptr, align 8
  %5 = alloca i32, align 4
  %6 = alloca ptr, align 8
  %7 = alloca i32, align 4
  %8 = alloca i32, align 4
  %9 = alloca i32, align 4
  store ptr %0, ptr %4, align 8, !tbaa !3
  store i32 %1, ptr %5, align 4, !tbaa !27
  call void @llvm.lifetime.start.p0(i64 8, ptr %6) #15
  call void @llvm.lifetime.start.p0(i64 4, ptr %7) #15
  call void @llvm.lifetime.start.p0(i64 4, ptr %8) #15
  %10 = load ptr, ptr %4, align 8, !tbaa !3
  %11 = getelementptr inbounds nuw %struct.If_DsdMan_t_, ptr %10, i32 0, i32 7
  %12 = load i32, ptr %5, align 4, !tbaa !27
  %13 = call ptr @If_DsdVecObj(ptr noundef %11, i32 noundef %12)
  store ptr %13, ptr %6, align 8, !tbaa !40
  %14 = load ptr, ptr %6, align 8, !tbaa !40
  %15 = call i32 @If_DsdObjType(ptr noundef %14)
  %16 = icmp eq i32 %15, 1
  br i1 %16, label %17, label %18

17:                                               ; preds = %2
  store i32 0, ptr %3, align 4
  store i32 1, ptr %9, align 4
  br label %53

18:                                               ; preds = %2
  %19 = load ptr, ptr %6, align 8, !tbaa !40
  %20 = call i32 @If_DsdObjType(ptr noundef %19)
  %21 = icmp eq i32 %20, 2
  br i1 %21, label %22, label %23

22:                                               ; preds = %18
  store i32 0, ptr %3, align 4
  store i32 1, ptr %9, align 4
  br label %53

23:                                               ; preds = %18
  %24 = load ptr, ptr %6, align 8, !tbaa !40
  %25 = call i32 @If_DsdObjType(ptr noundef %24)
  %26 = icmp eq i32 %25, 6
  br i1 %26, label %27, label %28

27:                                               ; preds = %23
  store i32 1, ptr %3, align 4
  store i32 1, ptr %9, align 4
  br label %53

28:                                               ; preds = %23
  store i32 0, ptr %7, align 4, !tbaa !27
  br label %29

29:                                               ; preds = %49, %28
  %30 = load i32, ptr %7, align 4, !tbaa !27
  %31 = load ptr, ptr %6, align 8, !tbaa !40
  %32 = call i32 @If_DsdObjFaninNum(ptr noundef %31)
  %33 = icmp slt i32 %30, %32
  br i1 %33, label %34, label %39

34:                                               ; preds = %29
  %35 = load ptr, ptr %6, align 8, !tbaa !40
  %36 = load i32, ptr %7, align 4, !tbaa !27
  %37 = call i32 @If_DsdObjFaninLit(ptr noundef %35, i32 noundef %36)
  store i32 %37, ptr %8, align 4, !tbaa !27
  %38 = icmp ne i32 %37, 0
  br label %39

39:                                               ; preds = %34, %29
  %40 = phi i1 [ false, %29 ], [ %38, %34 ]
  br i1 %40, label %41, label %52

41:                                               ; preds = %39
  %42 = load ptr, ptr %4, align 8, !tbaa !3
  %43 = load i32, ptr %8, align 4, !tbaa !27
  %44 = call i32 @Abc_Lit2Var(i32 noundef %43)
  %45 = call i32 @If_DsdManCheckNonDec_rec(ptr noundef %42, i32 noundef %44)
  %46 = icmp ne i32 %45, 0
  br i1 %46, label %47, label %48

47:                                               ; preds = %41
  store i32 1, ptr %3, align 4
  store i32 1, ptr %9, align 4
  br label %53

48:                                               ; preds = %41
  br label %49

49:                                               ; preds = %48
  %50 = load i32, ptr %7, align 4, !tbaa !27
  %51 = add nsw i32 %50, 1
  store i32 %51, ptr %7, align 4, !tbaa !27
  br label %29, !llvm.loop !123

52:                                               ; preds = %39
  store i32 0, ptr %3, align 4
  store i32 1, ptr %9, align 4
  br label %53

53:                                               ; preds = %52, %47, %27, %22, %17
  call void @llvm.lifetime.end.p0(i64 4, ptr %8) #15
  call void @llvm.lifetime.end.p0(i64 4, ptr %7) #15
  call void @llvm.lifetime.end.p0(i64 8, ptr %6) #15
  %54 = load i32, ptr %3, align 4
  ret i32 %54
}