; Function Attrs: nofree nosync nounwind memory(read, inaccessiblemem: none) uwtable
define range(i32 0, 2) i32 @If_DsdManCheckNonDec_rec(ptr noundef readonly captures(none) %0, i32 noundef %1) local_unnamed_addr #12 {
  %3 = getelementptr i8, ptr %0, i64 48
  %.val = load ptr, ptr %3, align 8, !tbaa !23
  %4 = sext i32 %1 to i64
  %5 = getelementptr inbounds ptr, ptr %.val, i64 %4
  %6 = load ptr, ptr %5, align 8, !tbaa !24
  %7 = getelementptr i8, ptr %6, i64 4
  %.val17 = load i32, ptr %7, align 4
  %8 = and i32 %.val17, 7
  switch i32 %8, label %.preheader [
    i32 1, label %.critedge
    i32 2, label %.critedge
    i32 6, label %.critedge.fold.split
  ]

.preheader:                                       ; preds = %2
  %9 = getelementptr inbounds nuw i8, ptr %6, i64 8
  %.not24 = icmp ult i32 %.val17, 134217728
  br i1 %.not24, label %.critedge, label %.lr.ph.preheader

.lr.ph.preheader:                                 ; preds = %.preheader
  %10 = lshr i32 %.val17, 27
  %wide.trip.count = zext nneg i32 %10 to i64
  br label %.lr.ph

11:                                               ; preds = %14
  %indvars.iv.next = add nuw nsw i64 %indvars.iv, 1
  %exitcond.not = icmp eq i64 %indvars.iv.next, %wide.trip.count
  br i1 %exitcond.not, label %.critedge, label %.lr.ph, !llvm.loop !136

.lr.ph:                                           ; preds = %.lr.ph.preheader, %11
  %indvars.iv = phi i64 [ 0, %.lr.ph.preheader ], [ %indvars.iv.next, %11 ]
  %12 = getelementptr inbounds nuw [0 x i32], ptr %9, i64 0, i64 %indvars.iv
  %13 = load i32, ptr %12, align 4, !tbaa !40
  %.not = icmp eq i32 %13, 0
  br i1 %.not, label %.critedge, label %14

14:                                               ; preds = %.lr.ph
  %15 = ashr i32 %13, 1
  %16 = tail call i32 @If_DsdManCheckNonDec_rec(ptr noundef %0, i32 noundef %15)
  %.not14 = icmp eq i32 %16, 0
  br i1 %.not14, label %11, label %.critedge

.critedge.fold.split:                             ; preds = %2
  br label %.critedge

.critedge:                                        ; preds = %14, %11, %.lr.ph, %.preheader, %2, %2, %.critedge.fold.split
  %.0 = phi i32 [ 0, %2 ], [ 0, %2 ], [ 1, %.critedge.fold.split ], [ 0, %.preheader ], [ 1, %14 ], [ 0, %11 ], [ 0, %.lr.ph ]
  ret i32 %.0
}